; Function Attrs: nounwind uwtable
define internal noundef i32 @parse_message_arg_callback(ptr noundef readonly captures(none) %0, ptr noundef %1, i32 noundef %2) #0 {
  %4 = getelementptr inbounds nuw i8, ptr %0, i64 16
  %5 = load ptr, ptr %4, align 8, !tbaa !16
  %.not = icmp eq i32 %2, 0
  br i1 %.not, label %7, label %6

6:                                                ; preds = %3
  tail call void (ptr, i32, ptr, ...) @BUG_fl(ptr noundef nonnull @.str.14, i32 noundef 61, ptr noundef nonnull @.str.15) #10
  unreachable

7:                                                ; preds = %3
  %.not7 = icmp eq ptr %1, null
  br i1 %.not7, label %8, label %9

8:                                                ; preds = %7
  tail call void (ptr, i32, ptr, ...) @BUG_fl(ptr noundef nonnull @.str.14, i32 noundef 61, ptr noundef nonnull @.str.16) #10
  unreachable

9:                                                ; preds = %7
  %10 = getelementptr inbounds nuw i8, ptr %5, i64 8
  %11 = load i64, ptr %10, align 8, !tbaa !25
  %.not8 = icmp eq i64 %11, 0
  br i1 %.not8, label %21, label %12

12:                                               ; preds = %9
  %13 = load i64, ptr %5, align 8, !tbaa !34
  %.not.i.i = icmp eq i64 %13, 0
  %.neg.i = add i64 %11, 1
  %.not.i = icmp eq i64 %13, %.neg.i
  %or.cond = or i1 %.not.i.i, %.not.i
  br i1 %or.cond, label %strbuf_avail.exit.thread.i, label %strbuf_addch.exit

strbuf_avail.exit.thread.i:                       ; preds = %12
  tail call void @strbuf_grow(ptr noundef nonnull %5, i64 noundef 1) #9
  %.pre.i = load i64, ptr %10, align 8, !tbaa !25
  %.pre7.i = add i64 %.pre.i, 1
  br label %strbuf_addch.exit

strbuf_addch.exit:                                ; preds = %12, %strbuf_avail.exit.thread.i
  %.pre-phi.i = phi i64 [ %.pre7.i, %strbuf_avail.exit.thread.i ], [ %.neg.i, %12 ]
  %14 = phi i64 [ %.pre.i, %strbuf_avail.exit.thread.i ], [ %11, %12 ]
  %15 = getelementptr inbounds nuw i8, ptr %5, i64 16
  %16 = load ptr, ptr %15, align 8, !tbaa !27
  store i64 %.pre-phi.i, ptr %10, align 8, !tbaa !25
  %17 = getelementptr inbounds nuw i8, ptr %16, i64 %14
  store i8 10, ptr %17, align 1, !tbaa !35
  %18 = load ptr, ptr %15, align 8, !tbaa !27
  %19 = load i64, ptr %10, align 8, !tbaa !25
  %20 = getelementptr inbounds nuw i8, ptr %18, i64 %19
  store i8 0, ptr %20, align 1, !tbaa !35
  br label %21

21:                                               ; preds = %strbuf_addch.exit, %9
  %22 = tail call i64 @strlen(ptr noundef nonnull dereferenceable(1) %1) #11
  tail call void @strbuf_add(ptr noundef nonnull %5, ptr noundef nonnull %1, i64 noundef %22) #9
  %23 = load i64, ptr %10, align 8, !tbaa !25
  %.not.i.i9 = icmp eq i64 %23, 0
  br i1 %.not.i.i9, label %strbuf_complete_line.exit, label %24

24:                                               ; preds = %21
  %25 = getelementptr inbounds nuw i8, ptr %5, i64 16
  %26 = load ptr, ptr %25, align 8, !tbaa !27
  %27 = getelementptr i8, ptr %26, i64 %23
  %28 = getelementptr i8, ptr %27, i64 -1
  %29 = load i8, ptr %28, align 1, !tbaa !35
  %.not6.i.i = icmp eq i8 %29, 10
  br i1 %.not6.i.i, label %strbuf_complete_line.exit, label %30

30:                                               ; preds = %24
  %31 = load i64, ptr %5, align 8, !tbaa !34
  %.not.i.i.i.i = icmp eq i64 %31, 0
  %.neg.i.i.i = add i64 %23, 1
  %.not.i.i.i = icmp eq i64 %31, %.neg.i.i.i
  %or.cond.i.i = or i1 %.not.i.i.i.i, %.not.i.i.i
  br i1 %or.cond.i.i, label %strbuf_avail.exit.thread.i.i.i, label %strbuf_addch.exit.i.i

strbuf_avail.exit.thread.i.i.i:                   ; preds = %30
  tail call void @strbuf_grow(ptr noundef nonnull %5, i64 noundef 1) #9
  %.pre.i.i.i = load i64, ptr %10, align 8, !tbaa !25
  %.pre7.i.i.i = add i64 %.pre.i.i.i, 1
  %.pre.i.i = load ptr, ptr %25, align 8, !tbaa !27
  br label %strbuf_addch.exit.i.i

strbuf_addch.exit.i.i:                            ; preds = %strbuf_avail.exit.thread.i.i.i, %30
  %32 = phi ptr [ %.pre.i.i, %strbuf_avail.exit.thread.i.i.i ], [ %26, %30 ]
  %.pre-phi.i.i.i = phi i64 [ %.pre7.i.i.i, %strbuf_avail.exit.thread.i.i.i ], [ %.neg.i.i.i, %30 ]
  %33 = phi i64 [ %.pre.i.i.i, %strbuf_avail.exit.thread.i.i.i ], [ %23, %30 ]
  store i64 %.pre-phi.i.i.i, ptr %10, align 8, !tbaa !25
  %34 = getelementptr inbounds nuw i8, ptr %32, i64 %33
  store i8 10, ptr %34, align 1, !tbaa !35
  %35 = load ptr, ptr %25, align 8, !tbaa !27
  %36 = load i64, ptr %10, align 8, !tbaa !25
  %37 = getelementptr inbounds nuw i8, ptr %35, i64 %36
  store i8 0, ptr %37, align 1, !tbaa !35
  br label %strbuf_complete_line.exit

strbuf_complete_line.exit:                        ; preds = %21, %24, %strbuf_addch.exit.i.i
  ret i32 0
}